; ModuleID = 'source-C-CXX/27/1927.c'
source_filename = "source-C-CXX/27/1927.c"
target datalayout = "e-m:e-p270:32:32-p271:32:32-p272:64:64-i64:64-f80:128-n8:16:32:64-S128"
target triple = "x86_64-pc-linux-gnu"

@.str = private unnamed_addr constant [3 x i8] c"%d\00", align 1
@.str.1 = private unnamed_addr constant [4 x i8] c",%d\00", align 1

; Function Attrs: nounwind sspstrong uwtable
define dso_local i32 @main() local_unnamed_addr #0 {
  %1 = alloca [10000 x i8], align 16
  %2 = getelementptr inbounds [10000 x i8], [10000 x i8]* %1, i64 0, i64 0
  call void @llvm.lifetime.start.p0i8(i64 10000, i8* nonnull %2) #5
  %3 = call i32 (i8*, ...) bitcast (i32 (...)* @gets to i32 (i8*, ...)*)(i8* nonnull %2) #5
  %4 = call i64 @strlen(i8* noundef nonnull %2) #6
  %5 = trunc i64 %4 to i32
  %6 = icmp sgt i32 %5, 0
  br i1 %6, label %7, label %37

7:                                                ; preds = %0
  %8 = shl i64 %4, 32
  %9 = ashr exact i64 %8, 32
  br label %10

10:                                               ; preds = %7, %32
  %11 = phi i32 [ %35, %32 ], [ 0, %7 ]
  %12 = phi i32 [ %33, %32 ], [ 0, %7 ]
  %13 = sext i32 %11 to i64
  %14 = getelementptr inbounds [10000 x i8], [10000 x i8]* %1, i64 0, i64 %13
  %15 = load i8, i8* %14, align 1, !tbaa !5
  %16 = icmp eq i8 %15, 32
  br i1 %16, label %32, label %17

17:                                               ; preds = %10, %17
  %18 = phi i64 [ %21, %17 ], [ %13, %10 ]
  %19 = phi i32 [ %20, %17 ], [ 0, %10 ]
  %20 = add nuw nsw i32 %19, 1
  %21 = add nsw i64 %18, 1
  %22 = getelementptr inbounds [10000 x i8], [10000 x i8]* %1, i64 0, i64 %21
  %23 = load i8, i8* %22, align 1, !tbaa !5
  %24 = icmp ne i8 %23, 32
  %25 = icmp slt i64 %21, %9
  %26 = select i1 %24, i1 %25, i1 false
  br i1 %26, label %17, label %27

27:                                               ; preds = %17
  %28 = trunc i64 %21 to i32
  %29 = icmp eq i32 %12, 0
  %30 = select i1 %29, i8* getelementptr inbounds ([3 x i8], [3 x i8]* @.str, i64 0, i64 0), i8* getelementptr inbounds ([4 x i8], [4 x i8]* @.str.1, i64 0, i64 0)
  %31 = call i32 (i8*, ...) @printf(i8* nonnull dereferenceable(1) %30, i32 %20)
  br label %32

32:                                               ; preds = %27, %10
  %33 = phi i32 [ %12, %10 ], [ 1, %27 ]
  %34 = phi i32 [ %11, %10 ], [ %28, %27 ]
  %35 = add nsw i32 %34, 1
  %36 = icmp slt i32 %35, %5
  br i1 %36, label %10, label %37, !llvm.loop !8

37:                                               ; preds = %32, %0
  call void @llvm.lifetime.end.p0i8(i64 10000, i8* nonnull %2) #5
  ret i32 0
}

; Function Attrs: argmemonly mustprogress nofree nosync nounwind willreturn
declare void @llvm.lifetime.start.p0i8(i64 immarg, i8* nocapture) #1

declare i32 @gets(...) local_unnamed_addr #2

; Function Attrs: argmemonly mustprogress nofree nounwind readonly willreturn
declare i64 @strlen(i8* nocapture) local_unnamed_addr #3

; Function Attrs: nofree nounwind
declare noundef i32 @printf(i8* nocapture noundef readonly, ...) local_unnamed_addr #4

; Function Attrs: argmemonly mustprogress nofree nosync nounwind willreturn
declare void @llvm.lifetime.end.p0i8(i64 immarg, i8* nocapture) #1


!llvm.module.flags = !{!0, !1, !2, !3}
!llvm.ident = !{!4}

!0 = !{i32 1, !"wchar_size", i32 4}
!1 = !{i32 7, !"PIC Level", i32 2}
!2 = !{i32 7, !"PIE Level", i32 2}
!3 = !{i32 7, !"uwtable", i32 1}
!4 = !{!"clang version 13.0.0"}
!5 = !{!6, !6, i64 0}
!6 = !{!"omnipotent char", !7, i64 0}
!7 = !{!"Simple C/C++ TBAA"}
!8 = distinct !{!8, !9}
!9 = !{!"llvm.loop.mustprogress"}
